; Function Attrs: mustprogress nounwind uwtable
define dso_local noundef ptr @_ZN4llvm20LatencyPriorityQueue24getSingleUnscheduledPredEPNS_5SUnitE(ptr nocapture noundef nonnull readnone align 8 dereferenceable(80) %0, ptr noundef %1) local_unnamed_addr #0 align 2 {
  %3 = getelementptr inbounds nuw i8, ptr %1, i64 40
  %4 = load ptr, ptr %3, align 8
  %5 = tail call noundef i64 @_ZNK4llvm15SmallVectorBaseIjE4sizeEv(ptr noundef nonnull align 8 dereferenceable(16) %3) #8
  %6 = getelementptr inbounds %"class.llvm::SDep", ptr %4, i64 %5
  %.not20 = icmp eq i64 %5, 0
  br i1 %.not20, label %._crit_edge, label %.lr.ph

.lr.ph:                                           ; preds = %2, %13
  %.01522 = phi ptr [ %.1, %13 ], [ null, %2 ]
  %.01621 = phi ptr [ %14, %13 ], [ %4, %2 ]
  %.0.copyload.i.i.i.i = load i64, ptr %.01621, align 8
  %7 = and i64 %.0.copyload.i.i.i.i, -8
  %8 = inttoptr i64 %7 to ptr
  %9 = getelementptr inbounds nuw i8, ptr %8, i64 248
  %10 = load i16, ptr %9, align 8
  %11 = and i16 %10, 1024
  %.not17 = icmp eq i16 %11, 0
  br i1 %.not17, label %12, label %13

12:                                               ; preds = %.lr.ph
  %.not18 = icmp eq ptr %.01522, null
  %.not19 = icmp eq ptr %.01522, %8
  %or.cond = or i1 %.not18, %.not19
  br i1 %or.cond, label %13, label %._crit_edge

13:                                               ; preds = %12, %.lr.ph
  %.1 = phi ptr [ %.01522, %.lr.ph ], [ %8, %12 ]
  %14 = getelementptr inbounds i8, ptr %.01621, i64 16
  %.not = icmp eq ptr %14, %6
  br i1 %.not, label %._crit_edge, label %.lr.ph

._crit_edge:                                      ; preds = %12, %13, %2
  %.0 = phi ptr [ null, %2 ], [ %.1, %13 ], [ null, %12 ]
  ret ptr %.0
}